target datalayout = "e-m:e-p270:32:32-p271:32:32-p272:64:64-i64:64-i128:128-f80:128-n8:16:32:64-S128"
target triple = "x86_64-pc-linux-gnu"

; Function Attrs: inlinehint mustprogress nounwind uwtable
define linkonce_odr dso_local noundef float @_ZSt4fabsf(float noundef %0) #5 comdat {
  %2 = alloca float, align 4
  store float %0, ptr %2, align 4, !tbaa !14
  %3 = load float, ptr %2, align 4, !tbaa !14
  %4 = call float @llvm.fabs.f32(float %3)
  ret float %4
}

; Function Attrs: inlinehint mustprogress nounwind uwtable
define linkonce_odr dso_local noundef float @_ZSt3cosf(float noundef %0) #5 comdat {
  %2 = alloca float, align 4
  store float %0, ptr %2, align 4, !tbaa !14
  %3 = load float, ptr %2, align 4, !tbaa !14
  %4 = call float @cosf(float noundef %3) #8, !tbaa !9
  ret float %4
}

; Function Attrs: inlinehint mustprogress nounwind uwtable
define linkonce_odr dso_local noundef float @_ZSt4acosf(float noundef %0) #5 comdat {
  %2 = alloca float, align 4
  store float %0, ptr %2, align 4, !tbaa !14
  %3 = load float, ptr %2, align 4, !tbaa !14
  %4 = call float @acosf(float noundef %3) #8, !tbaa !9
  ret float %4
}

; Function Attrs: inlinehint mustprogress nounwind uwtable
define linkonce_odr dso_local noundef float @_ZSt4sqrtf(float noundef %0) #5 comdat {
  %2 = alloca float, align 4
  store float %0, ptr %2, align 4, !tbaa !14
  %3 = load float, ptr %2, align 4, !tbaa !14
  %4 = call float @sqrtf(float noundef %3) #8, !tbaa !9
  ret float %4
}

; Function Attrs: mustprogress uwtable
define dso_local noundef i32 @_Z7SolveP3Pffff(ptr noundef %0, float noundef %1, float noundef %2, float noundef %3) #2 {
  %5 = alloca i32, align 4
  %6 = alloca ptr, align 8
  %7 = alloca float, align 4
  %8 = alloca float, align 4
  %9 = alloca float, align 4
  %10 = alloca float, align 4
  %11 = alloca float, align 4
  %12 = alloca float, align 4
  %13 = alloca float, align 4
  %14 = alloca float, align 4
  %15 = alloca float, align 4
  %16 = alloca float, align 4
  %17 = alloca float, align 4
  %18 = alloca i32, align 4
  store ptr %0, ptr %6, align 8, !tbaa !12
  store float %1, ptr %7, align 4, !tbaa !14
  store float %2, ptr %8, align 4, !tbaa !14
  store float %3, ptr %9, align 4, !tbaa !14
  call void @llvm.lifetime.start.p0(i64 4, ptr %10) #8
  %19 = load float, ptr %7, align 4, !tbaa !14
  %20 = load float, ptr %7, align 4, !tbaa !14
  %21 = fmul float %19, %20
  store float %21, ptr %10, align 4, !tbaa !14
  call void @llvm.lifetime.start.p0(i64 4, ptr %11) #8
  %22 = load float, ptr %10, align 4, !tbaa !14
  %23 = load float, ptr %8, align 4, !tbaa !14
  %24 = call float @llvm.fmuladd.f32(float -3.000000e+00, float %23, float %22)
  %25 = fdiv float %24, 9.000000e+00
  store float %25, ptr %11, align 4, !tbaa !14
  %26 = load float, ptr %11, align 4, !tbaa !14
  %27 = fcmp olt float %26, 0.000000e+00
  br i1 %27, label %28, label %29

28:                                               ; preds = %4
  store float 0x3E80000000000000, ptr %11, align 4, !tbaa !14
  br label %29

29:                                               ; preds = %28, %4
  call void @llvm.lifetime.start.p0(i64 4, ptr %12) #8
  %30 = load float, ptr %7, align 4, !tbaa !14
  %31 = load float, ptr %10, align 4, !tbaa !14
  %32 = load float, ptr %8, align 4, !tbaa !14
  %33 = fmul float 9.000000e+00, %32
  %34 = fneg float %33
  %35 = call float @llvm.fmuladd.f32(float 2.000000e+00, float %31, float %34)
  %36 = load float, ptr %9, align 4, !tbaa !14
  %37 = fmul float 2.700000e+01, %36
  %38 = call float @llvm.fmuladd.f32(float %30, float %35, float %37)
  %39 = fdiv float %38, 5.400000e+01
  store float %39, ptr %12, align 4, !tbaa !14
  call void @llvm.lifetime.start.p0(i64 4, ptr %13) #8
  %40 = load float, ptr %12, align 4, !tbaa !14
  %41 = load float, ptr %12, align 4, !tbaa !14
  %42 = fmul float %40, %41
  store float %42, ptr %13, align 4, !tbaa !14
  call void @llvm.lifetime.start.p0(i64 4, ptr %14) #8
  %43 = load float, ptr %11, align 4, !tbaa !14
  %44 = load float, ptr %11, align 4, !tbaa !14
  %45 = fmul float %43, %44
  %46 = load float, ptr %11, align 4, !tbaa !14
  %47 = fmul float %45, %46
  store float %47, ptr %14, align 4, !tbaa !14
  call void @llvm.lifetime.start.p0(i64 4, ptr %15) #8
  call void @llvm.lifetime.start.p0(i64 4, ptr %16) #8
  %48 = load float, ptr %13, align 4, !tbaa !14
  %49 = load float, ptr %14, align 4, !tbaa !14
  %50 = fadd float %49, 0x3E80000000000000
  %51 = fcmp ole float %48, %50
  br i1 %51, label %52, label %109

52:                                               ; preds = %29
  call void @llvm.lifetime.start.p0(i64 4, ptr %17) #8
  %53 = load float, ptr %12, align 4, !tbaa !14
  %54 = load float, ptr %14, align 4, !tbaa !14
  %55 = call noundef float @_ZSt4sqrtf(float noundef %54)
  %56 = fdiv float %53, %55
  store float %56, ptr %17, align 4, !tbaa !14
  %57 = load float, ptr %17, align 4, !tbaa !14
  %58 = fcmp olt float %57, -1.000000e+00
  br i1 %58, label %59, label %60

59:                                               ; preds = %52
  store float -1.000000e+00, ptr %17, align 4, !tbaa !14
  br label %60

60:                                               ; preds = %59, %52
  %61 = load float, ptr %17, align 4, !tbaa !14
  %62 = fcmp ogt float %61, 1.000000e+00
  br i1 %62, label %63, label %64

63:                                               ; preds = %60
  store float 1.000000e+00, ptr %17, align 4, !tbaa !14
  br label %64

64:                                               ; preds = %63, %60
  %65 = load float, ptr %17, align 4, !tbaa !14
  %66 = call noundef float @_ZSt4acosf(float noundef %65)
  store float %66, ptr %17, align 4, !tbaa !14
  %67 = load float, ptr %7, align 4, !tbaa !14
  %68 = fdiv float %67, 3.000000e+00
  store float %68, ptr %7, align 4, !tbaa !14
  %69 = load float, ptr %11, align 4, !tbaa !14
  %70 = call noundef float @_ZSt4sqrtf(float noundef %69)
  %71 = fmul float -2.000000e+00, %70
  store float %71, ptr %11, align 4, !tbaa !14
  %72 = load float, ptr %11, align 4, !tbaa !14
  %73 = load float, ptr %17, align 4, !tbaa !14
  %74 = fdiv float %73, 3.000000e+00
  %75 = call noundef float @_ZSt3cosf(float noundef %74)
  %76 = load float, ptr %7, align 4, !tbaa !14
  %77 = fneg float %76
  %78 = call float @llvm.fmuladd.f32(float %72, float %75, float %77)
  %79 = load ptr, ptr %6, align 8, !tbaa !12
  %80 = getelementptr inbounds float, ptr %79, i64 0
  store float %78, ptr %80, align 4, !tbaa !14
  %81 = load float, ptr %11, align 4, !tbaa !14
  %82 = fpext float %81 to double
  %83 = load float, ptr %17, align 4, !tbaa !14
  %84 = fpext float %83 to double
  %85 = fadd double %84, 0x401921FB54442D18
  %86 = fdiv double %85, 3.000000e+00
  %87 = call double @cos(double noundef %86) #8, !tbaa !9
  %88 = load float, ptr %7, align 4, !tbaa !14
  %89 = fpext float %88 to double
  %90 = fneg double %89
  %91 = call double @llvm.fmuladd.f64(double %82, double %87, double %90)
  %92 = fptrunc double %91 to float
  %93 = load ptr, ptr %6, align 8, !tbaa !12
  %94 = getelementptr inbounds float, ptr %93, i64 1
  store float %92, ptr %94, align 4, !tbaa !14
  %95 = load float, ptr %11, align 4, !tbaa !14
  %96 = fpext float %95 to double
  %97 = load float, ptr %17, align 4, !tbaa !14
  %98 = fpext float %97 to double
  %99 = fsub double %98, 0x401921FB54442D18
  %100 = fdiv double %99, 3.000000e+00
  %101 = call double @cos(double noundef %100) #8, !tbaa !9
  %102 = load float, ptr %7, align 4, !tbaa !14
  %103 = fpext float %102 to double
  %104 = fneg double %103
  %105 = call double @llvm.fmuladd.f64(double %96, double %101, double %104)
  %106 = fptrunc double %105 to float
  %107 = load ptr, ptr %6, align 8, !tbaa !12
  %108 = getelementptr inbounds float, ptr %107, i64 2
  store float %106, ptr %108, align 4, !tbaa !14
  store i32 3, ptr %5, align 4
  store i32 1, ptr %18, align 4
  call void @llvm.lifetime.end.p0(i64 4, ptr %17) #8
  br label %176

109:                                              ; preds = %29
  %110 = load float, ptr %12, align 4, !tbaa !14
  %111 = call noundef float @_ZSt4fabsf(float noundef %110)
  %112 = load float, ptr %13, align 4, !tbaa !14
  %113 = load float, ptr %14, align 4, !tbaa !14
  %114 = fsub float %112, %113
  %115 = call noundef float @_ZSt4sqrtf(float noundef %114)
  %116 = fadd float %111, %115
  %117 = call noundef float @_Z5root3f(float noundef %116)
  %118 = fneg float %117
  store float %118, ptr %15, align 4, !tbaa !14
  %119 = load float, ptr %12, align 4, !tbaa !14
  %120 = fcmp olt float %119, 0.000000e+00
  br i1 %120, label %121, label %124

121:                                              ; preds = %109
  %122 = load float, ptr %15, align 4, !tbaa !14
  %123 = fneg float %122
  store float %123, ptr %15, align 4, !tbaa !14
  br label %124

124:                                              ; preds = %121, %109
  %125 = load float, ptr %15, align 4, !tbaa !14
  %126 = fcmp oeq float %125, 0.000000e+00
  br i1 %126, label %127, label %128

127:                                              ; preds = %124
  br label %132

128:                                              ; preds = %124
  %129 = load float, ptr %11, align 4, !tbaa !14
  %130 = load float, ptr %15, align 4, !tbaa !14
  %131 = fdiv float %129, %130
  br label %132

132:                                              ; preds = %128, %127
  %133 = phi float [ 0.000000e+00, %127 ], [ %131, %128 ]
  store float %133, ptr %16, align 4, !tbaa !14
  %134 = load float, ptr %7, align 4, !tbaa !14
  %135 = fdiv float %134, 3.000000e+00
  store float %135, ptr %7, align 4, !tbaa !14
  %136 = load float, ptr %15, align 4, !tbaa !14
  %137 = load float, ptr %16, align 4, !tbaa !14
  %138 = fadd float %136, %137
  %139 = load float, ptr %7, align 4, !tbaa !14
  %140 = fsub float %138, %139
  %141 = load ptr, ptr %6, align 8, !tbaa !12
  %142 = getelementptr inbounds float, ptr %141, i64 0
  store float %140, ptr %142, align 4, !tbaa !14
  %143 = load float, ptr %15, align 4, !tbaa !14
  %144 = load float, ptr %16, align 4, !tbaa !14
  %145 = fadd float %143, %144
  %146 = fpext float %145 to double
  %147 = load float, ptr %7, align 4, !tbaa !14
  %148 = fpext float %147 to double
  %149 = fneg double %148
  %150 = call double @llvm.fmuladd.f64(double -5.000000e-01, double %146, double %149)
  %151 = fptrunc double %150 to float
  %152 = load ptr, ptr %6, align 8, !tbaa !12
  %153 = getelementptr inbounds float, ptr %152, i64 1
  store float %151, ptr %153, align 4, !tbaa !14
  %154 = call double @sqrt(double noundef 3.000000e+00) #8, !tbaa !9
  %155 = fmul double 5.000000e-01, %154
  %156 = load float, ptr %15, align 4, !tbaa !14
  %157 = load float, ptr %16, align 4, !tbaa !14
  %158 = fsub float %156, %157
  %159 = fpext float %158 to double
  %160 = fmul double %155, %159
  %161 = fptrunc double %160 to float
  %162 = load ptr, ptr %6, align 8, !tbaa !12
  %163 = getelementptr inbounds float, ptr %162, i64 2
  store float %161, ptr %163, align 4, !tbaa !14
  %164 = load ptr, ptr %6, align 8, !tbaa !12
  %165 = getelementptr inbounds float, ptr %164, i64 2
  %166 = load float, ptr %165, align 4, !tbaa !14
  %167 = call noundef float @_ZSt4fabsf(float noundef %166)
  %168 = fcmp olt float %167, 0x3E80000000000000
  br i1 %168, label %169, label %175

169:                                              ; preds = %132
  %170 = load ptr, ptr %6, align 8, !tbaa !12
  %171 = getelementptr inbounds float, ptr %170, i64 1
  %172 = load float, ptr %171, align 4, !tbaa !14
  %173 = load ptr, ptr %6, align 8, !tbaa !12
  %174 = getelementptr inbounds float, ptr %173, i64 2
  store float %172, ptr %174, align 4, !tbaa !14
  store i32 2, ptr %5, align 4
  store i32 1, ptr %18, align 4
  br label %176

175:                                              ; preds = %132
  store i32 1, ptr %5, align 4
  store i32 1, ptr %18, align 4
  br label %176

176:                                              ; preds = %175, %169, %64
  call void @llvm.lifetime.end.p0(i64 4, ptr %16) #8
  call void @llvm.lifetime.end.p0(i64 4, ptr %15) #8
  call void @llvm.lifetime.end.p0(i64 4, ptr %14) #8
  call void @llvm.lifetime.end.p0(i64 4, ptr %13) #8
  call void @llvm.lifetime.end.p0(i64 4, ptr %12) #8
  call void @llvm.lifetime.end.p0(i64 4, ptr %11) #8
  call void @llvm.lifetime.end.p0(i64 4, ptr %10) #8
  %177 = load i32, ptr %5, align 4
  ret i32 %177
}