; Function Attrs: mustprogress uwtable
define dso_local noundef range(i32 1, 4) i32 @_Z7SolveP3Pffff(ptr noundef writeonly captures(none) initializes((0, 12)) %0, float noundef %1, float noundef %2, float noundef %3) local_unnamed_addr #2 {
  %5 = fmul float %1, %1
  %6 = tail call float @llvm.fmuladd.f32(float %2, float -3.000000e+00, float %5)
  %7 = fdiv float %6, 9.000000e+00
  %8 = fcmp olt float %7, 0.000000e+00
  %.060 = select i1 %8, float 0x3E80000000000000, float %7
  %9 = fmul float %2, -9.000000e+00
  %10 = tail call float @llvm.fmuladd.f32(float %5, float 2.000000e+00, float %9)
  %11 = fmul float %3, 2.700000e+01
  %12 = tail call float @llvm.fmuladd.f32(float %1, float %10, float %11)
  %13 = fdiv float %12, 5.400000e+01
  %14 = fmul float %13, %13
  %15 = fmul float %.060, %.060
  %16 = fmul float %.060, %15
  %17 = fadd float %16, 0x3E80000000000000
  %18 = fcmp ugt float %14, %17
  br i1 %18, label %47, label %19

19:                                               ; preds = %4
  %20 = tail call noundef float @sqrtf(float noundef %16) #7, !tbaa !4
  %21 = fdiv float %13, %20
  %22 = fcmp olt float %21, -1.000000e+00
  %.0 = select i1 %22, float -1.000000e+00, float %21
  %23 = fcmp ogt float %.0, 1.000000e+00
  %.1 = select i1 %23, float 1.000000e+00, float %.0
  %24 = tail call noundef float @acosf(float noundef %.1) #7, !tbaa !4
  %25 = fdiv float %1, 3.000000e+00
  %sqrt = tail call float @llvm.sqrt.f32(float %.060)
  %26 = fmul float %sqrt, -2.000000e+00
  %27 = fdiv float %24, 3.000000e+00
  %28 = tail call noundef float @cosf(float noundef %27) #7, !tbaa !4
  %29 = fneg float %25
  %30 = tail call float @llvm.fmuladd.f32(float %26, float %28, float %29)
  store float %30, ptr %0, align 4, !tbaa !8
  %31 = fpext float %26 to double
  %32 = fpext float %24 to double
  %33 = fadd double %32, 0x401921FB54442D18
  %34 = fdiv double %33, 3.000000e+00
  %35 = tail call double @cos(double noundef %34) #7, !tbaa !4
  %36 = fpext float %25 to double
  %37 = fneg double %36
  %38 = tail call double @llvm.fmuladd.f64(double %31, double %35, double %37)
  %39 = fptrunc double %38 to float
  %40 = getelementptr inbounds nuw i8, ptr %0, i64 4
  store float %39, ptr %40, align 4, !tbaa !8
  %41 = fadd double %32, 0xC01921FB54442D18
  %42 = fdiv double %41, 3.000000e+00
  %43 = tail call double @cos(double noundef %42) #7, !tbaa !4
  %44 = tail call double @llvm.fmuladd.f64(double %31, double %43, double %37)
  %45 = fptrunc double %44 to float
  %46 = getelementptr inbounds nuw i8, ptr %0, i64 8
  store float %45, ptr %46, align 4, !tbaa !8
  br label %75

47:                                               ; preds = %4
  %48 = tail call noundef float @llvm.fabs.f32(float %13)
  %49 = fsub float %14, %16
  %50 = tail call noundef float @sqrtf(float noundef %49) #7, !tbaa !4
  %51 = fadd float %48, %50
  %52 = tail call noundef float @_Z5root3f(float noundef %51)
  %53 = fneg float %52
  %54 = fcmp olt float %13, 0.000000e+00
  %.059 = select i1 %54, float %52, float %53
  %55 = fcmp oeq float %52, 0.000000e+00
  %56 = fdiv float %.060, %.059
  %57 = select i1 %55, float 0.000000e+00, float %56
  %58 = fdiv float %1, 3.000000e+00
  %59 = fadd float %.059, %57
  %60 = fsub float %59, %58
  store float %60, ptr %0, align 4, !tbaa !8
  %61 = fpext float %59 to double
  %62 = fpext float %58 to double
  %63 = fneg double %62
  %64 = tail call double @llvm.fmuladd.f64(double %61, double -5.000000e-01, double %63)
  %65 = fptrunc double %64 to float
  %66 = getelementptr inbounds nuw i8, ptr %0, i64 4
  store float %65, ptr %66, align 4, !tbaa !8
  %67 = fsub float %.059, %57
  %68 = fpext float %67 to double
  %69 = fmul double %68, 0x3FEBB67AE8584CAA
  %70 = fptrunc double %69 to float
  %71 = getelementptr inbounds nuw i8, ptr %0, i64 8
  store float %70, ptr %71, align 4, !tbaa !8
  %72 = tail call noundef float @llvm.fabs.f32(float %70)
  %73 = fcmp olt float %72, 0x3E80000000000000
  br i1 %73, label %74, label %75

74:                                               ; preds = %47
  store float %65, ptr %71, align 4, !tbaa !8
  br label %75

75:                                               ; preds = %47, %74, %19
  %.058 = phi i32 [ 3, %19 ], [ 2, %74 ], [ 1, %47 ]
  ret i32 %.058
}